; Function Attrs: nounwind uwtable
define hidden void @mbedtls_ssl_send_flight_completed(ptr noundef %0) local_unnamed_addr #0 {
  %2 = load ptr, ptr %0, align 8, !tbaa !18
  %3 = getelementptr inbounds nuw i8, ptr %2, i64 340
  %4 = load i32, ptr %3, align 4, !tbaa !92
  %5 = getelementptr inbounds nuw i8, ptr %0, i64 112
  %6 = load ptr, ptr %5, align 8, !tbaa !75
  %7 = getelementptr inbounds nuw i8, ptr %6, i64 1892
  store i32 %4, ptr %7, align 4, !tbaa !82
  %8 = zext i32 %4 to i64
  tail call void (ptr, i32, ptr, i32, ptr, ...) @mbedtls_debug_print_msg(ptr noundef nonnull %0, i32 noundef 3, ptr noundef nonnull @.str, i32 noundef 519, ptr noundef nonnull @.str.146, i64 noundef %8) #19
  %9 = getelementptr inbounds nuw i8, ptr %0, i64 168
  %10 = load ptr, ptr %9, align 8, !tbaa !3
  %11 = icmp eq ptr %10, null
  br i1 %11, label %mbedtls_ssl_set_timer.exit, label %12

12:                                               ; preds = %1
  %13 = load ptr, ptr %5, align 8, !tbaa !75
  %14 = getelementptr inbounds nuw i8, ptr %13, i64 1892
  %15 = load i32, ptr %14, align 4, !tbaa !82
  tail call void (ptr, i32, ptr, i32, ptr, ...) @mbedtls_debug_print_msg(ptr noundef nonnull %0, i32 noundef 3, ptr noundef nonnull @.str, i32 noundef 291, ptr noundef nonnull @.str.1, i32 noundef %15) #19
  %16 = load ptr, ptr %9, align 8, !tbaa !3
  %17 = getelementptr inbounds nuw i8, ptr %0, i64 160
  %18 = load ptr, ptr %17, align 8, !tbaa !16
  %19 = lshr i32 %15, 2
  tail call void %16(ptr noundef %18, i32 noundef %19, i32 noundef %15) #19
  br label %mbedtls_ssl_set_timer.exit

mbedtls_ssl_set_timer.exit:                       ; preds = %1, %12
  %20 = getelementptr inbounds nuw i8, ptr %0, i64 248
  %21 = load i32, ptr %20, align 8, !tbaa !136
  %22 = icmp eq i32 %21, 22
  br i1 %22, label %23, label %28

23:                                               ; preds = %mbedtls_ssl_set_timer.exit
  %24 = getelementptr inbounds nuw i8, ptr %0, i64 232
  %25 = load ptr, ptr %24, align 8, !tbaa !137
  %26 = load i8, ptr %25, align 1, !tbaa !32
  %27 = icmp eq i8 %26, 20
  br i1 %27, label %29, label %28

28:                                               ; preds = %23, %mbedtls_ssl_set_timer.exit
  br label %29

29:                                               ; preds = %23, %28
  %.sink = phi i8 [ 2, %28 ], [ 3, %23 ]
  %30 = load ptr, ptr %5, align 8, !tbaa !75
  %31 = getelementptr inbounds nuw i8, ptr %30, i64 13
  store i8 %.sink, ptr %31, align 1, !tbaa !110
  ret void
}